target datalayout = "e-m:e-p270:32:32-p271:32:32-p272:64:64-i64:64-i128:128-f80:128-n8:16:32:64-S128"
target triple = "x86_64-pc-linux-gnu"

%struct.Node = type { i32 }
%struct.Expr = type { i32 }
%struct.Var = type { %struct.Expr, i32, i16, i32, i32, i32, ptr, i32, i32, i32, i16, i32 }
%struct.TupleDescData = type { i32, i32, i32, i32, ptr, [0 x %struct.CompactAttribute] }
%struct.CompactAttribute = type { i32, i16, i8, i8, i8, i8, i8, i8, i8 }
%struct.FormData_pg_attribute = type { i32, %struct.nameData, i32, i16, i16, i32, i16, i8, i8, i8, i8, i8, i8, i8, i8, i8, i8, i8, i16, i32 }
%struct.nameData = type { [64 x i8] }
%struct.FieldSelect = type { %struct.Expr, ptr, i16, i32, i32, i32 }

; Function Attrs: inlinehint nounwind uwtable
define internal ptr @newNode(i64 noundef %0, i32 noundef %1) #3 {
  %3 = alloca i64, align 8
  %4 = alloca i32, align 4
  %5 = alloca ptr, align 8
  store i64 %0, ptr %3, align 8
  store i32 %1, ptr %4, align 4
  call void @llvm.lifetime.start.p0(i64 8, ptr %5) #7
  %6 = load i64, ptr %3, align 8
  %7 = call ptr @palloc0(i64 noundef %6)
  store ptr %7, ptr %5, align 8
  %8 = load i32, ptr %4, align 4
  %9 = load ptr, ptr %5, align 8
  %10 = getelementptr inbounds nuw %struct.Node, ptr %9, i32 0, i32 0
  store i32 %8, ptr %10, align 4
  %11 = load ptr, ptr %5, align 8
  call void @llvm.lifetime.end.p0(i64 8, ptr %5) #7
  ret ptr %11
}

; Function Attrs: inlinehint nounwind uwtable
define internal ptr @TupleDescAttr(ptr noundef %0, i32 noundef %1) #3 {
  %3 = alloca ptr, align 8
  %4 = alloca i32, align 4
  %5 = alloca ptr, align 8
  store ptr %0, ptr %3, align 8
  store i32 %1, ptr %4, align 4
  call void @llvm.lifetime.start.p0(i64 8, ptr %5) #7
  %6 = load ptr, ptr %3, align 8
  %7 = load ptr, ptr %3, align 8
  %8 = getelementptr inbounds nuw %struct.TupleDescData, ptr %7, i32 0, i32 0
  %9 = load i32, ptr %8, align 8
  %10 = sext i32 %9 to i64
  %11 = mul i64 %10, 16
  %12 = add i64 24, %11
  %13 = getelementptr inbounds nuw i8, ptr %6, i64 %12
  store ptr %13, ptr %5, align 8
  %14 = load ptr, ptr %5, align 8
  %15 = load i32, ptr %4, align 4
  %16 = sext i32 %15 to i64
  %17 = getelementptr inbounds %struct.FormData_pg_attribute, ptr %14, i64 %16
  call void @llvm.lifetime.end.p0(i64 8, ptr %5) #7
  ret ptr %17
}

; Function Attrs: nounwind uwtable
define internal ptr @ParseComplexProjection(ptr noundef %0, ptr noundef %1, ptr noundef %2, i32 noundef %3) #0 {
  %5 = alloca ptr, align 8
  %6 = alloca ptr, align 8
  %7 = alloca ptr, align 8
  %8 = alloca ptr, align 8
  %9 = alloca i32, align 4
  %10 = alloca ptr, align 8
  %11 = alloca i32, align 4
  %12 = alloca ptr, align 8
  %13 = alloca i32, align 4
  %14 = alloca ptr, align 8
  %15 = alloca ptr, align 8
  store ptr %0, ptr %6, align 8
  store ptr %1, ptr %7, align 8
  store ptr %2, ptr %8, align 8
  store i32 %3, ptr %9, align 4
  call void @llvm.lifetime.start.p0(i64 8, ptr %10) #7
  call void @llvm.lifetime.start.p0(i64 4, ptr %11) #7
  %16 = load ptr, ptr %8, align 8
  %17 = getelementptr inbounds nuw %struct.Node, ptr %16, i32 0, i32 0
  %18 = load i32, ptr %17, align 4
  %19 = icmp eq i32 %18, 6
  br i1 %19, label %20, label %43

20:                                               ; preds = %4
  %21 = load ptr, ptr %8, align 8
  %22 = getelementptr inbounds nuw %struct.Var, ptr %21, i32 0, i32 2
  %23 = load i16, ptr %22, align 8
  %24 = sext i16 %23 to i32
  %25 = icmp eq i32 %24, 0
  br i1 %25, label %26, label %43

26:                                               ; preds = %20
  call void @llvm.lifetime.start.p0(i64 8, ptr %12) #7
  %27 = load ptr, ptr %6, align 8
  %28 = load ptr, ptr %8, align 8
  %29 = getelementptr inbounds nuw %struct.Var, ptr %28, i32 0, i32 1
  %30 = load i32, ptr %29, align 4
  %31 = load ptr, ptr %8, align 8
  %32 = getelementptr inbounds nuw %struct.Var, ptr %31, i32 0, i32 7
  %33 = load i32, ptr %32, align 8
  %34 = call ptr @GetNSItemByRangeTablePosn(ptr noundef %27, i32 noundef %30, i32 noundef %33)
  store ptr %34, ptr %12, align 8
  %35 = load ptr, ptr %6, align 8
  %36 = load ptr, ptr %12, align 8
  %37 = load ptr, ptr %8, align 8
  %38 = getelementptr inbounds nuw %struct.Var, ptr %37, i32 0, i32 7
  %39 = load i32, ptr %38, align 8
  %40 = load ptr, ptr %7, align 8
  %41 = load i32, ptr %9, align 4
  %42 = call ptr @scanNSItemForColumn(ptr noundef %35, ptr noundef %36, i32 noundef %39, ptr noundef %40, i32 noundef %41)
  store ptr %42, ptr %5, align 8
  store i32 1, ptr %13, align 4
  call void @llvm.lifetime.end.p0(i64 8, ptr %12) #7
  br label %121

43:                                               ; preds = %20, %4
  %44 = load ptr, ptr %8, align 8
  %45 = getelementptr inbounds nuw %struct.Node, ptr %44, i32 0, i32 0
  %46 = load i32, ptr %45, align 4
  %47 = icmp eq i32 %46, 6
  br i1 %47, label %48, label %57

48:                                               ; preds = %43
  %49 = load ptr, ptr %8, align 8
  %50 = getelementptr inbounds nuw %struct.Var, ptr %49, i32 0, i32 3
  %51 = load i32, ptr %50, align 4
  %52 = icmp eq i32 %51, 2249
  br i1 %52, label %53, label %57

53:                                               ; preds = %48
  %54 = load ptr, ptr %6, align 8
  %55 = load ptr, ptr %8, align 8
  %56 = call ptr @expandRecordVariable(ptr noundef %54, ptr noundef %55, i32 noundef 0)
  store ptr %56, ptr %10, align 8
  br label %60

57:                                               ; preds = %48, %43
  %58 = load ptr, ptr %8, align 8
  %59 = call ptr @get_expr_result_tupdesc(ptr noundef %58, i1 noundef zeroext true)
  store ptr %59, ptr %10, align 8
  br label %60

60:                                               ; preds = %57, %53
  %61 = load ptr, ptr %10, align 8
  %62 = icmp ne ptr %61, null
  br i1 %62, label %64, label %63

63:                                               ; preds = %60
  store ptr null, ptr %5, align 8
  store i32 1, ptr %13, align 4
  br label %121

64:                                               ; preds = %60
  store i32 0, ptr %11, align 4
  br label %65

65:                                               ; preds = %117, %64
  %66 = load i32, ptr %11, align 4
  %67 = load ptr, ptr %10, align 8
  %68 = getelementptr inbounds nuw %struct.TupleDescData, ptr %67, i32 0, i32 0
  %69 = load i32, ptr %68, align 8
  %70 = icmp slt i32 %66, %69
  br i1 %70, label %71, label %120

71:                                               ; preds = %65
  call void @llvm.lifetime.start.p0(i64 8, ptr %14) #7
  %72 = load ptr, ptr %10, align 8
  %73 = load i32, ptr %11, align 4
  %74 = call ptr @TupleDescAttr(ptr noundef %72, i32 noundef %73)
  store ptr %74, ptr %14, align 8
  %75 = load ptr, ptr %7, align 8
  %76 = load ptr, ptr %14, align 8
  %77 = getelementptr inbounds nuw %struct.FormData_pg_attribute, ptr %76, i32 0, i32 1
  %78 = getelementptr inbounds nuw %struct.nameData, ptr %77, i32 0, i32 0
  %79 = getelementptr inbounds [64 x i8], ptr %78, i64 0, i64 0
  %80 = call i32 @strcmp(ptr noundef %75, ptr noundef %79) #9
  %81 = icmp eq i32 %80, 0
  br i1 %81, label %82, label %113

82:                                               ; preds = %71
  %83 = load ptr, ptr %14, align 8
  %84 = getelementptr inbounds nuw %struct.FormData_pg_attribute, ptr %83, i32 0, i32 16
  %85 = load i8, ptr %84, align 1, !range !4, !noundef !5
  %86 = trunc i8 %85 to i1
  br i1 %86, label %113, label %87

87:                                               ; preds = %82
  call void @llvm.lifetime.start.p0(i64 8, ptr %15) #7
  %88 = call ptr @newNode(i64 noundef 32, i32 noundef 25)
  store ptr %88, ptr %15, align 8
  %89 = load ptr, ptr %8, align 8
  %90 = load ptr, ptr %15, align 8
  %91 = getelementptr inbounds nuw %struct.FieldSelect, ptr %90, i32 0, i32 1
  store ptr %89, ptr %91, align 8
  %92 = load i32, ptr %11, align 4
  %93 = add i32 %92, 1
  %94 = trunc i32 %93 to i16
  %95 = load ptr, ptr %15, align 8
  %96 = getelementptr inbounds nuw %struct.FieldSelect, ptr %95, i32 0, i32 2
  store i16 %94, ptr %96, align 8
  %97 = load ptr, ptr %14, align 8
  %98 = getelementptr inbounds nuw %struct.FormData_pg_attribute, ptr %97, i32 0, i32 2
  %99 = load i32, ptr %98, align 4
  %100 = load ptr, ptr %15, align 8
  %101 = getelementptr inbounds nuw %struct.FieldSelect, ptr %100, i32 0, i32 3
  store i32 %99, ptr %101, align 4
  %102 = load ptr, ptr %14, align 8
  %103 = getelementptr inbounds nuw %struct.FormData_pg_attribute, ptr %102, i32 0, i32 5
  %104 = load i32, ptr %103, align 4
  %105 = load ptr, ptr %15, align 8
  %106 = getelementptr inbounds nuw %struct.FieldSelect, ptr %105, i32 0, i32 4
  store i32 %104, ptr %106, align 8
  %107 = load ptr, ptr %14, align 8
  %108 = getelementptr inbounds nuw %struct.FormData_pg_attribute, ptr %107, i32 0, i32 19
  %109 = load i32, ptr %108, align 4
  %110 = load ptr, ptr %15, align 8
  %111 = getelementptr inbounds nuw %struct.FieldSelect, ptr %110, i32 0, i32 5
  store i32 %109, ptr %111, align 4
  %112 = load ptr, ptr %15, align 8
  store ptr %112, ptr %5, align 8
  store i32 1, ptr %13, align 4
  call void @llvm.lifetime.end.p0(i64 8, ptr %15) #7
  br label %114

113:                                              ; preds = %82, %71
  store i32 0, ptr %13, align 4
  br label %114

114:                                              ; preds = %113, %87
  call void @llvm.lifetime.end.p0(i64 8, ptr %14) #7
  %115 = load i32, ptr %13, align 4
  switch i32 %115, label %121 [
    i32 0, label %116
  ]

116:                                              ; preds = %114
  br label %117

117:                                              ; preds = %116
  %118 = load i32, ptr %11, align 4
  %119 = add i32 %118, 1
  store i32 %119, ptr %11, align 4
  br label %65, !llvm.loop !11

120:                                              ; preds = %65
  store ptr null, ptr %5, align 8
  store i32 1, ptr %13, align 4
  br label %121

121:                                              ; preds = %120, %114, %63, %26
  call void @llvm.lifetime.end.p0(i64 4, ptr %11) #7
  call void @llvm.lifetime.end.p0(i64 8, ptr %10) #7
  %122 = load ptr, ptr %5, align 8
  ret ptr %122
}