; Function Attrs: nounwind uwtable
define internal fastcc ptr @ParseComplexProjection(ptr noundef %0, ptr noundef %1, ptr noundef %2, i32 noundef %3) unnamed_addr #0 {
  %5 = load i32, ptr %2, align 4
  %6 = icmp eq i32 %5, 6
  br i1 %6, label %7, label %25

7:                                                ; preds = %4
  %8 = getelementptr inbounds nuw i8, ptr %2, i64 8
  %9 = load i16, ptr %8, align 8
  %10 = icmp eq i16 %9, 0
  br i1 %10, label %11, label %19

11:                                               ; preds = %7
  %12 = getelementptr inbounds nuw i8, ptr %2, i64 4
  %13 = load i32, ptr %12, align 4
  %14 = getelementptr inbounds nuw i8, ptr %2, i64 32
  %15 = load i32, ptr %14, align 8
  %16 = tail call ptr @GetNSItemByRangeTablePosn(ptr noundef %0, i32 noundef %13, i32 noundef %15) #8
  %17 = load i32, ptr %14, align 8
  %18 = tail call ptr @scanNSItemForColumn(ptr noundef %0, ptr noundef %16, i32 noundef %17, ptr noundef %1, i32 noundef %3) #8
  br label %.loopexit

19:                                               ; preds = %7
  %20 = getelementptr inbounds nuw i8, ptr %2, i64 12
  %21 = load i32, ptr %20, align 4
  %22 = icmp eq i32 %21, 2249
  br i1 %22, label %23, label %25

23:                                               ; preds = %19
  %24 = tail call ptr @expandRecordVariable(ptr noundef %0, ptr noundef nonnull %2, i32 noundef 0) #8
  br label %27

25:                                               ; preds = %4, %19
  %26 = tail call ptr @get_expr_result_tupdesc(ptr noundef nonnull %2, i1 noundef zeroext true) #8
  br label %27

27:                                               ; preds = %25, %23
  %.036 = phi ptr [ %24, %23 ], [ %26, %25 ]
  %.not = icmp eq ptr %.036, null
  br i1 %.not, label %.loopexit, label %.preheader

.preheader:                                       ; preds = %27
  %28 = load i32, ptr %.036, align 8
  %29 = icmp sgt i32 %28, 0
  br i1 %29, label %.lr.ph, label %.loopexit

.lr.ph:                                           ; preds = %.preheader
  %invariant.gep = getelementptr i8, ptr %.036, i64 24
  %30 = zext nneg i32 %28 to i64
  %31 = shl nuw nsw i64 %30, 4
  %gep = getelementptr i8, ptr %invariant.gep, i64 %31
  br label %32

32:                                               ; preds = %.lr.ph, %56
  %indvars.iv = phi i64 [ 0, %.lr.ph ], [ %indvars.iv.next, %56 ]
  %33 = getelementptr inbounds nuw %struct.FormData_pg_attribute, ptr %gep, i64 %indvars.iv
  %34 = getelementptr inbounds nuw i8, ptr %33, i64 4
  %35 = tail call i32 @strcmp(ptr noundef nonnull dereferenceable(1) %1, ptr noundef nonnull dereferenceable(1) %34) #10
  %36 = icmp eq i32 %35, 0
  br i1 %36, label %37, label %56

37:                                               ; preds = %32
  %38 = getelementptr inbounds nuw i8, ptr %33, i64 91
  %39 = load i8, ptr %38, align 1, !range !4, !noundef !5
  %40 = trunc nuw i8 %39 to i1
  br i1 %40, label %56, label %41

41:                                               ; preds = %37
  %42 = tail call noundef ptr @palloc0(i64 noundef 32) #8
  store i32 25, ptr %42, align 4
  %43 = getelementptr inbounds nuw i8, ptr %42, i64 8
  store ptr %2, ptr %43, align 8
  %44 = trunc i64 %indvars.iv to i16
  %45 = add i16 %44, 1
  %46 = getelementptr inbounds nuw i8, ptr %42, i64 16
  store i16 %45, ptr %46, align 8
  %47 = getelementptr inbounds nuw i8, ptr %33, i64 68
  %48 = load i32, ptr %47, align 4
  %49 = getelementptr inbounds nuw i8, ptr %42, i64 20
  store i32 %48, ptr %49, align 4
  %50 = getelementptr inbounds nuw i8, ptr %33, i64 76
  %51 = load i32, ptr %50, align 4
  %52 = getelementptr inbounds nuw i8, ptr %42, i64 24
  store i32 %51, ptr %52, align 8
  %53 = getelementptr inbounds nuw i8, ptr %33, i64 96
  %54 = load i32, ptr %53, align 4
  %55 = getelementptr inbounds nuw i8, ptr %42, i64 28
  store i32 %54, ptr %55, align 4
  br label %.loopexit

56:                                               ; preds = %37, %32
  %indvars.iv.next = add nuw nsw i64 %indvars.iv, 1
  %exitcond.not = icmp eq i64 %indvars.iv.next, %30
  br i1 %exitcond.not, label %.loopexit, label %32, !llvm.loop !9

.loopexit:                                        ; preds = %56, %.preheader, %41, %27, %11
  %.0 = phi ptr [ %18, %11 ], [ %42, %41 ], [ null, %27 ], [ null, %.preheader ], [ null, %56 ]
  ret ptr %.0
}